ccopy_reg
_reconstructor
p1
(csklearn.tree.tree
DecisionTreeClassifier
p2
c__builtin__
object
p3
NtRp4
(dp5
S'presort'
p6
I00
sS'splitter'
p7
S'best'
p8
sS'tree_'
p9
csklearn.tree._tree
Tree
p10
(I3
cnumpy.core.multiarray
_reconstruct
p11
(cnumpy
ndarray
p12
(I0
tS'b'
tRp13
(I1
(I1
tcnumpy
dtype
p14
(S'i8'
I0
I1
tRp15
(I3
S'<'
NNNI-1
I-1
I0
tbI00
S'\x01\x00\x00\x00\x00\x00\x00\x00'
tbI1
tRp16
(dp17
S'node_count'
p18
I1
sS'values'
p19
g11
(g12
(I0
tS'b'
tRp20
(I1
(I1
I1
I1
tg14
(S'f8'
I0
I1
tRp21
(I3
S'<'
NNNI-1
I-1
I0
tbI00
S'\x00\x00\x00\x00\x00\x00\x00@'
tbsS'nodes'
p22
g11
(g12
(I0
tS'b'
tRp23
(I1
(I1
tg14
(S'V56'
I0
I1
tRp24
(I3
S'|'
N(S'left_child'
p25
S'right_child'
p26
S'feature'
p27
S'threshold'
p28
S'impurity'
p29
S'n_node_samples'
p30
S'weighted_n_node_samples'
p31
tp32
(dp33
g31
(g21
I48
tp34
sg29
(g21
I32
tp35
sg26
(g15
I8
tp36
sg27
(g15
I16
tp37
sg28
(g21
I24
tp38
sg25
(g15
I0
tp39
sg30
(g15
I40
tp40
sI56
I1
I16
tbI00
S'\xff\xff\xff\xff\xff\xff\xff\xff\xff\xff\xff\xff\xff\xff\xff\xff\xfe\xff\xff\xff\xff\xff\xff\xff\x00\x00\x00\x00\x00\x00\x00\xc0\x00\x00\x00\x00\x00\x00\x00\x00\x02\x00\x00\x00\x00\x00\x00\x00\x00\x00\x00\x00\x00\x00\x00@'
tbsbsS'n_features_'
p41
I3
sS'n_outputs_'
p42
I1
sS'n_classes_'
p43
cnumpy.core.multiarray
scalar
p44
(g15
S'\x01\x00\x00\x00\x00\x00\x00\x00'
tRp45
sS'random_state'
p46
NsS'classes_'
p47
g11
(g12
(I0
tS'b'
tRp48
(I1
(I1
tg14
(S'S8'
I0
I1
tRp49
(I3
S'|'
NNNI8
I1
I0
tbI00
S'position'
tbsS'max_features_'
p50
I3
sS'min_samples_leaf'
p51
I2
sS'max_features'
p52
NsS'min_weight_fraction_leaf'
p53
F0
sS'criterion'
p54
S'gini'
p55
sS'max_leaf_nodes'
p56
NsS'min_samples_split'
p57
I2
sS'max_depth'
p58
I5
sS'class_weight'
p59
Nsb.